; ModuleID = '7/609.c'
source_filename = "7/609.c"
target datalayout = "e-m:e-p270:32:32-p271:32:32-p272:64:64-i64:64-f80:128-n8:16:32:64-S128"
target triple = "x86_64-pc-linux-gnu"

@.str = private unnamed_addr constant [4 x i8] c"%s\0A\00", align 1

; Function Attrs: noinline nounwind uwtable
define dso_local i32 @main() #0 {
  %1 = alloca i32, align 4
  %2 = alloca [100 x i8], align 16
  %3 = alloca [100 x i8], align 16
  %4 = alloca [100 x i8], align 16
  %5 = alloca [100 x i8], align 16
  %6 = alloca i32, align 4
  %7 = alloca i32, align 4
  %8 = alloca i32, align 4
  %9 = alloca i32, align 4
  %10 = alloca i32, align 4
  %11 = alloca i32, align 4
  %12 = alloca i32, align 4
  %13 = alloca i32, align 4
  store i32 0, i32* %1, align 4
  store i32 0, i32* %6, align 4
  store i32 0, i32* %12, align 4
  store i32 0, i32* %13, align 4
  %14 = getelementptr inbounds [100 x i8], [100 x i8]* %2, i64 0, i64 0
  %15 = call i32 (i8*, ...) bitcast (i32 (...)* @gets to i32 (i8*, ...)*)(i8* %14)
  %16 = getelementptr inbounds [100 x i8], [100 x i8]* %3, i64 0, i64 0
  %17 = call i32 (i8*, ...) bitcast (i32 (...)* @gets to i32 (i8*, ...)*)(i8* %16)
  %18 = getelementptr inbounds [100 x i8], [100 x i8]* %4, i64 0, i64 0
  %19 = call i32 (i8*, ...) bitcast (i32 (...)* @gets to i32 (i8*, ...)*)(i8* %18)
  %20 = getelementptr inbounds [100 x i8], [100 x i8]* %2, i64 0, i64 0
  %21 = call i64 @strlen(i8* %20) #3
  %22 = trunc i64 %21 to i32
  store i32 %22, i32* %10, align 4
  %23 = getelementptr inbounds [100 x i8], [100 x i8]* %3, i64 0, i64 0
  %24 = call i64 @strlen(i8* %23) #3
  %25 = trunc i64 %24 to i32
  store i32 %25, i32* %11, align 4
  %26 = getelementptr inbounds [100 x i8], [100 x i8]* %4, i64 0, i64 0
  %27 = call i64 @strlen(i8* %26) #3
  %28 = trunc i64 %27 to i32
  store i32 %28, i32* %9, align 4
  store i32 0, i32* %7, align 4
  br label %29

29:                                               ; preds = %112, %0
  %30 = load i32, i32* %7, align 4
  %31 = load i32, i32* %10, align 4
  %32 = icmp slt i32 %30, %31
  br i1 %32, label %33, label %115

33:                                               ; preds = %29
  %34 = load i32, i32* %7, align 4
  %35 = sext i32 %34 to i64
  %36 = getelementptr inbounds [100 x i8], [100 x i8]* %2, i64 0, i64 %35
  %37 = load i8, i8* %36, align 1
  %38 = sext i8 %37 to i32
  %39 = getelementptr inbounds [100 x i8], [100 x i8]* %3, i64 0, i64 0
  %40 = load i8, i8* %39, align 16
  %41 = sext i8 %40 to i32
  %42 = icmp eq i32 %38, %41
  br i1 %42, label %43, label %102

43:                                               ; preds = %33
  store i32 0, i32* %8, align 4
  br label %44

44:                                               ; preds = %66, %43
  %45 = load i32, i32* %8, align 4
  %46 = load i32, i32* %11, align 4
  %47 = icmp slt i32 %45, %46
  br i1 %47, label %48, label %69

48:                                               ; preds = %44
  %49 = load i32, i32* %8, align 4
  %50 = sext i32 %49 to i64
  %51 = getelementptr inbounds [100 x i8], [100 x i8]* %3, i64 0, i64 %50
  %52 = load i8, i8* %51, align 1
  %53 = sext i8 %52 to i32
  %54 = load i32, i32* %7, align 4
  %55 = load i32, i32* %8, align 4
  %56 = add nsw i32 %54, %55
  %57 = sext i32 %56 to i64
  %58 = getelementptr inbounds [100 x i8], [100 x i8]* %2, i64 0, i64 %57
  %59 = load i8, i8* %58, align 1
  %60 = sext i8 %59 to i32
  %61 = icmp eq i32 %53, %60
  br i1 %61, label %62, label %65

62:                                               ; preds = %48
  %63 = load i32, i32* %6, align 4
  %64 = add nsw i32 %63, 1
  store i32 %64, i32* %6, align 4
  br label %65

65:                                               ; preds = %62, %48
  br label %66

66:                                               ; preds = %65
  %67 = load i32, i32* %8, align 4
  %68 = add nsw i32 %67, 1
  store i32 %68, i32* %8, align 4
  br label %44

69:                                               ; preds = %44
  %70 = load i32, i32* %6, align 4
  %71 = load i32, i32* %11, align 4
  %72 = icmp eq i32 %70, %71
  br i1 %72, label %73, label %101

73:                                               ; preds = %69
  %74 = load i32, i32* %13, align 4
  %75 = icmp eq i32 %74, 0
  br i1 %75, label %76, label %101

76:                                               ; preds = %73
  store i32 0, i32* %8, align 4
  br label %77

77:                                               ; preds = %91, %76
  %78 = load i32, i32* %8, align 4
  %79 = load i32, i32* %9, align 4
  %80 = icmp slt i32 %78, %79
  br i1 %80, label %81, label %94

81:                                               ; preds = %77
  %82 = load i32, i32* %8, align 4
  %83 = sext i32 %82 to i64
  %84 = getelementptr inbounds [100 x i8], [100 x i8]* %4, i64 0, i64 %83
  %85 = load i8, i8* %84, align 1
  %86 = load i32, i32* %12, align 4
  %87 = load i32, i32* %8, align 4
  %88 = add nsw i32 %86, %87
  %89 = sext i32 %88 to i64
  %90 = getelementptr inbounds [100 x i8], [100 x i8]* %5, i64 0, i64 %89
  store i8 %85, i8* %90, align 1
  br label %91

91:                                               ; preds = %81
  %92 = load i32, i32* %8, align 4
  %93 = add nsw i32 %92, 1
  store i32 %93, i32* %8, align 4
  br label %77

94:                                               ; preds = %77
  %95 = load i32, i32* %7, align 4
  %96 = load i32, i32* %11, align 4
  %97 = add nsw i32 %95, %96
  store i32 %97, i32* %7, align 4
  %98 = load i32, i32* %12, align 4
  %99 = load i32, i32* %9, align 4
  %100 = add nsw i32 %98, %99
  store i32 %100, i32* %12, align 4
  store i32 1, i32* %13, align 4
  br label %101

101:                                              ; preds = %94, %73, %69
  store i32 0, i32* %6, align 4
  br label %102

102:                                              ; preds = %101, %33
  %103 = load i32, i32* %7, align 4
  %104 = sext i32 %103 to i64
  %105 = getelementptr inbounds [100 x i8], [100 x i8]* %2, i64 0, i64 %104
  %106 = load i8, i8* %105, align 1
  %107 = load i32, i32* %12, align 4
  %108 = sext i32 %107 to i64
  %109 = getelementptr inbounds [100 x i8], [100 x i8]* %5, i64 0, i64 %108
  store i8 %106, i8* %109, align 1
  %110 = load i32, i32* %12, align 4
  %111 = add nsw i32 %110, 1
  store i32 %111, i32* %12, align 4
  br label %112

112:                                              ; preds = %102
  %113 = load i32, i32* %7, align 4
  %114 = add nsw i32 %113, 1
  store i32 %114, i32* %7, align 4
  br label %29

115:                                              ; preds = %29
  %116 = load i32, i32* %12, align 4
  %117 = sext i32 %116 to i64
  %118 = getelementptr inbounds [100 x i8], [100 x i8]* %5, i64 0, i64 %117
  store i8 0, i8* %118, align 1
  %119 = getelementptr inbounds [100 x i8], [100 x i8]* %5, i64 0, i64 0
  %120 = call i32 (i8*, ...) @printf(i8* getelementptr inbounds ([4 x i8], [4 x i8]* @.str, i64 0, i64 0), i8* %119)
  ret i32 0
}

declare dso_local i32 @gets(...) #1

; Function Attrs: nounwind readonly
declare dso_local i64 @strlen(i8*) #2

declare dso_local i32 @printf(i8*, ...) #1


!llvm.module.flags = !{!0}
!llvm.ident = !{!1}

!0 = !{i32 1, !"wchar_size", i32 4}
!1 = !{!"clang version 10.0.0-4ubuntu1 "}
